target datalayout = "e-m:e-p270:32:32-p271:32:32-p272:64:64-i64:64-i128:128-f80:128-n8:16:32:64-S128"
target triple = "x86_64-pc-linux-gnu"

%struct._object = type { %union.anon, ptr }
%union.anon = type { i64 }
%struct.anon = type { i32, i32 }
%struct.lru_cache_object = type { %struct.lru_list_elem, ptr, i32, ptr, i64, ptr, i64, i64, ptr, ptr, ptr, ptr, ptr }
%struct.lru_list_elem = type { %struct._object, ptr, ptr, i64, ptr, ptr }

; Function Attrs: alwaysinline nounwind uwtable
define internal i32 @_Py_IsImmortal(ptr noundef %0) #4 {
  %2 = alloca ptr, align 8
  store ptr %0, ptr %2, align 8, !tbaa !4
  %3 = load ptr, ptr %2, align 8, !tbaa !4
  %4 = getelementptr inbounds nuw %struct._object, ptr %3, i32 0, i32 0
  %5 = getelementptr inbounds nuw %struct.anon, ptr %4, i32 0, i32 0
  %6 = load i32, ptr %5, align 8, !tbaa !32
  %7 = icmp slt i32 %6, 0
  %8 = zext i1 %7 to i32
  ret i32 %8
}

; Function Attrs: alwaysinline nounwind uwtable
define internal void @Py_INCREF(ptr noundef %0) #4 {
  %2 = alloca ptr, align 8
  %3 = alloca i32, align 4
  %4 = alloca i32, align 4
  store ptr %0, ptr %2, align 8, !tbaa !4
  call void @llvm.lifetime.start.p0(i64 4, ptr %3) #8
  %5 = load ptr, ptr %2, align 8, !tbaa !4
  %6 = getelementptr inbounds nuw %struct._object, ptr %5, i32 0, i32 0
  %7 = getelementptr inbounds nuw %struct.anon, ptr %6, i32 0, i32 0
  %8 = load i32, ptr %7, align 8, !tbaa !32
  store i32 %8, ptr %3, align 4, !tbaa !15
  %9 = load i32, ptr %3, align 4, !tbaa !15
  %10 = icmp slt i32 %9, 0
  br i1 %10, label %11, label %12

11:                                               ; preds = %1
  store i32 1, ptr %4, align 4
  br label %18

12:                                               ; preds = %1
  %13 = load i32, ptr %3, align 4, !tbaa !15
  %14 = add i32 %13, 1
  %15 = load ptr, ptr %2, align 8, !tbaa !4
  %16 = getelementptr inbounds nuw %struct._object, ptr %15, i32 0, i32 0
  %17 = getelementptr inbounds nuw %struct.anon, ptr %16, i32 0, i32 0
  store i32 %14, ptr %17, align 8, !tbaa !32
  store i32 0, ptr %4, align 4
  br label %18

18:                                               ; preds = %12, %11
  call void @llvm.lifetime.end.p0(i64 4, ptr %3) #8
  %19 = load i32, ptr %4, align 4
  switch i32 %19, label %21 [
    i32 0, label %20
    i32 1, label %20
  ]

20:                                               ; preds = %18, %18
  ret void

21:                                               ; preds = %18
  unreachable
}

; Function Attrs: alwaysinline nounwind uwtable
define internal void @Py_DECREF(ptr noundef %0) #4 {
  %2 = alloca ptr, align 8
  store ptr %0, ptr %2, align 8, !tbaa !4
  %3 = load ptr, ptr %2, align 8, !tbaa !4
  %4 = call i32 @_Py_IsImmortal(ptr noundef %3)
  %5 = icmp ne i32 %4, 0
  br i1 %5, label %6, label %7

6:                                                ; preds = %1
  br label %16

7:                                                ; preds = %1
  %8 = load ptr, ptr %2, align 8, !tbaa !4
  %9 = getelementptr inbounds nuw %struct._object, ptr %8, i32 0, i32 0
  %10 = getelementptr inbounds nuw %struct.anon, ptr %9, i32 0, i32 0
  %11 = load i32, ptr %10, align 8, !tbaa !32
  %12 = add i32 %11, -1
  store i32 %12, ptr %10, align 8, !tbaa !32
  %13 = icmp eq i32 %12, 0
  br i1 %13, label %14, label %16

14:                                               ; preds = %7
  %15 = load ptr, ptr %2, align 8, !tbaa !4
  call void @_Py_Dealloc(ptr noundef %15)
  br label %16

16:                                               ; preds = %6, %14, %7
  ret void
}

; Function Attrs: nounwind uwtable
define internal ptr @infinite_lru_cache_wrapper(ptr noundef %0, ptr noundef %1, ptr noundef %2) #0 {
  %4 = alloca ptr, align 8
  %5 = alloca ptr, align 8
  %6 = alloca ptr, align 8
  %7 = alloca ptr, align 8
  %8 = alloca ptr, align 8
  %9 = alloca i64, align 8
  %10 = alloca ptr, align 8
  %11 = alloca i32, align 4
  store ptr %0, ptr %5, align 8, !tbaa !155
  store ptr %1, ptr %6, align 8, !tbaa !4
  store ptr %2, ptr %7, align 8, !tbaa !4
  call void @llvm.lifetime.start.p0(i64 8, ptr %8) #8
  call void @llvm.lifetime.start.p0(i64 8, ptr %9) #8
  call void @llvm.lifetime.start.p0(i64 8, ptr %10) #8
  %12 = load ptr, ptr %5, align 8, !tbaa !155
  %13 = getelementptr inbounds nuw %struct.lru_cache_object, ptr %12, i32 0, i32 8
  %14 = load ptr, ptr %13, align 8, !tbaa !170
  %15 = load ptr, ptr %6, align 8, !tbaa !4
  %16 = load ptr, ptr %7, align 8, !tbaa !4
  %17 = load ptr, ptr %5, align 8, !tbaa !155
  %18 = getelementptr inbounds nuw %struct.lru_cache_object, ptr %17, i32 0, i32 2
  %19 = load i32, ptr %18, align 8, !tbaa !175
  %20 = call ptr @lru_cache_make_key(ptr noundef %14, ptr noundef %15, ptr noundef %16, i32 noundef %19)
  store ptr %20, ptr %10, align 8, !tbaa !4
  %21 = load ptr, ptr %10, align 8, !tbaa !4
  %22 = icmp ne ptr %21, null
  br i1 %22, label %24, label %23

23:                                               ; preds = %3
  store ptr null, ptr %4, align 8
  store i32 1, ptr %11, align 4
  br label %83

24:                                               ; preds = %3
  %25 = load ptr, ptr %10, align 8, !tbaa !4
  %26 = call i64 @PyObject_Hash(ptr noundef %25)
  store i64 %26, ptr %9, align 8, !tbaa !27
  %27 = load i64, ptr %9, align 8, !tbaa !27
  %28 = icmp eq i64 %27, -1
  br i1 %28, label %29, label %31

29:                                               ; preds = %24
  %30 = load ptr, ptr %10, align 8, !tbaa !4
  call void @Py_DECREF(ptr noundef %30)
  store ptr null, ptr %4, align 8
  store i32 1, ptr %11, align 4
  br label %83

31:                                               ; preds = %24
  %32 = load ptr, ptr %5, align 8, !tbaa !155
  %33 = getelementptr inbounds nuw %struct.lru_cache_object, ptr %32, i32 0, i32 3
  %34 = load ptr, ptr %33, align 8, !tbaa !168
  %35 = load ptr, ptr %10, align 8, !tbaa !4
  %36 = load i64, ptr %9, align 8, !tbaa !27
  %37 = call ptr @_PyDict_GetItem_KnownHash(ptr noundef %34, ptr noundef %35, i64 noundef %36)
  store ptr %37, ptr %8, align 8, !tbaa !4
  %38 = load ptr, ptr %8, align 8, !tbaa !4
  %39 = icmp ne ptr %38, null
  br i1 %39, label %40, label %48

40:                                               ; preds = %31
  %41 = load ptr, ptr %8, align 8, !tbaa !4
  call void @Py_INCREF(ptr noundef %41)
  %42 = load ptr, ptr %5, align 8, !tbaa !155
  %43 = getelementptr inbounds nuw %struct.lru_cache_object, ptr %42, i32 0, i32 4
  %44 = load i64, ptr %43, align 8, !tbaa !176
  %45 = add i64 %44, 1
  store i64 %45, ptr %43, align 8, !tbaa !176
  %46 = load ptr, ptr %10, align 8, !tbaa !4
  call void @Py_DECREF(ptr noundef %46)
  %47 = load ptr, ptr %8, align 8, !tbaa !4
  store ptr %47, ptr %4, align 8
  store i32 1, ptr %11, align 4
  br label %83

48:                                               ; preds = %31
  %49 = call ptr @PyErr_Occurred()
  %50 = icmp ne ptr %49, null
  br i1 %50, label %51, label %53

51:                                               ; preds = %48
  %52 = load ptr, ptr %10, align 8, !tbaa !4
  call void @Py_DECREF(ptr noundef %52)
  store ptr null, ptr %4, align 8
  store i32 1, ptr %11, align 4
  br label %83

53:                                               ; preds = %48
  %54 = load ptr, ptr %5, align 8, !tbaa !155
  %55 = getelementptr inbounds nuw %struct.lru_cache_object, ptr %54, i32 0, i32 7
  %56 = load i64, ptr %55, align 8, !tbaa !177
  %57 = add i64 %56, 1
  store i64 %57, ptr %55, align 8, !tbaa !177
  %58 = load ptr, ptr %5, align 8, !tbaa !155
  %59 = getelementptr inbounds nuw %struct.lru_cache_object, ptr %58, i32 0, i32 5
  %60 = load ptr, ptr %59, align 8, !tbaa !169
  %61 = load ptr, ptr %6, align 8, !tbaa !4
  %62 = load ptr, ptr %7, align 8, !tbaa !4
  %63 = call ptr @PyObject_Call(ptr noundef %60, ptr noundef %61, ptr noundef %62)
  store ptr %63, ptr %8, align 8, !tbaa !4
  %64 = load ptr, ptr %8, align 8, !tbaa !4
  %65 = icmp ne ptr %64, null
  br i1 %65, label %68, label %66

66:                                               ; preds = %53
  %67 = load ptr, ptr %10, align 8, !tbaa !4
  call void @Py_DECREF(ptr noundef %67)
  store ptr null, ptr %4, align 8
  store i32 1, ptr %11, align 4
  br label %83

68:                                               ; preds = %53
  %69 = load ptr, ptr %5, align 8, !tbaa !155
  %70 = getelementptr inbounds nuw %struct.lru_cache_object, ptr %69, i32 0, i32 3
  %71 = load ptr, ptr %70, align 8, !tbaa !168
  %72 = load ptr, ptr %10, align 8, !tbaa !4
  %73 = load ptr, ptr %8, align 8, !tbaa !4
  %74 = load i64, ptr %9, align 8, !tbaa !27
  %75 = call i32 @_PyDict_SetItem_KnownHash(ptr noundef %71, ptr noundef %72, ptr noundef %73, i64 noundef %74)
  %76 = icmp slt i32 %75, 0
  br i1 %76, label %77, label %80

77:                                               ; preds = %68
  %78 = load ptr, ptr %8, align 8, !tbaa !4
  call void @Py_DECREF(ptr noundef %78)
  %79 = load ptr, ptr %10, align 8, !tbaa !4
  call void @Py_DECREF(ptr noundef %79)
  store ptr null, ptr %4, align 8
  store i32 1, ptr %11, align 4
  br label %83

80:                                               ; preds = %68
  %81 = load ptr, ptr %10, align 8, !tbaa !4
  call void @Py_DECREF(ptr noundef %81)
  %82 = load ptr, ptr %8, align 8, !tbaa !4
  store ptr %82, ptr %4, align 8
  store i32 1, ptr %11, align 4
  br label %83

83:                                               ; preds = %80, %77, %66, %51, %40, %29, %23
  call void @llvm.lifetime.end.p0(i64 8, ptr %10) #8
  call void @llvm.lifetime.end.p0(i64 8, ptr %9) #8
  call void @llvm.lifetime.end.p0(i64 8, ptr %8) #8
  %84 = load ptr, ptr %4, align 8
  ret ptr %84
}