; Function Attrs: nounwind uwtable
define internal ptr @infinite_lru_cache_wrapper(ptr noundef captures(none) %0, ptr noundef %1, ptr noundef %2) #0 {
  %4 = getelementptr inbounds nuw i8, ptr %0, i64 112
  %5 = load ptr, ptr %4, align 8, !tbaa !158
  %6 = getelementptr inbounds nuw i8, ptr %0, i64 64
  %7 = load i32, ptr %6, align 8, !tbaa !166
  %8 = tail call fastcc ptr @lru_cache_make_key(ptr noundef %5, ptr noundef %1, ptr noundef %2, i32 noundef %7)
  %.not = icmp eq ptr %8, null
  br i1 %.not, label %Py_DECREF.exit49, label %9

9:                                                ; preds = %3
  %10 = tail call i64 @PyObject_Hash(ptr noundef nonnull %8) #9
  %11 = icmp eq i64 %10, -1
  br i1 %11, label %12, label %17

12:                                               ; preds = %9
  %13 = load i32, ptr %8, align 8, !tbaa !21
  %.not.i48 = icmp sgt i32 %13, -1
  br i1 %.not.i48, label %14, label %Py_DECREF.exit49

14:                                               ; preds = %12
  %15 = add nsw i32 %13, -1
  store i32 %15, ptr %8, align 8, !tbaa !21
  %16 = icmp eq i32 %15, 0
  br i1 %16, label %Py_DECREF.exit49.sink.split, label %Py_DECREF.exit49

17:                                               ; preds = %9
  %18 = getelementptr inbounds nuw i8, ptr %0, i64 72
  %19 = load ptr, ptr %18, align 8, !tbaa !156
  %20 = tail call ptr @_PyDict_GetItem_KnownHash(ptr noundef %19, ptr noundef nonnull %8, i64 noundef %10) #9
  %.not35 = icmp eq ptr %20, null
  br i1 %.not35, label %33, label %21

21:                                               ; preds = %17
  %22 = load i32, ptr %20, align 8, !tbaa !21
  %23 = icmp slt i32 %22, 0
  br i1 %23, label %Py_INCREF.exit, label %24

24:                                               ; preds = %21
  %25 = add nuw i32 %22, 1
  store i32 %25, ptr %20, align 8, !tbaa !21
  br label %Py_INCREF.exit

Py_INCREF.exit:                                   ; preds = %21, %24
  %26 = getelementptr inbounds nuw i8, ptr %0, i64 80
  %27 = load i64, ptr %26, align 8, !tbaa !167
  %28 = add i64 %27, 1
  store i64 %28, ptr %26, align 8, !tbaa !167
  %29 = load i32, ptr %8, align 8, !tbaa !21
  %.not.i46 = icmp sgt i32 %29, -1
  br i1 %.not.i46, label %30, label %Py_DECREF.exit49

30:                                               ; preds = %Py_INCREF.exit
  %31 = add nsw i32 %29, -1
  store i32 %31, ptr %8, align 8, !tbaa !21
  %32 = icmp eq i32 %31, 0
  br i1 %32, label %Py_DECREF.exit49.sink.split, label %Py_DECREF.exit49

33:                                               ; preds = %17
  %34 = tail call ptr @PyErr_Occurred() #9
  %.not36 = icmp eq ptr %34, null
  br i1 %.not36, label %40, label %35

35:                                               ; preds = %33
  %36 = load i32, ptr %8, align 8, !tbaa !21
  %.not.i44 = icmp sgt i32 %36, -1
  br i1 %.not.i44, label %37, label %Py_DECREF.exit49

37:                                               ; preds = %35
  %38 = add nsw i32 %36, -1
  store i32 %38, ptr %8, align 8, !tbaa !21
  %39 = icmp eq i32 %38, 0
  br i1 %39, label %Py_DECREF.exit49.sink.split, label %Py_DECREF.exit49

40:                                               ; preds = %33
  %41 = getelementptr inbounds nuw i8, ptr %0, i64 104
  %42 = load i64, ptr %41, align 8, !tbaa !168
  %43 = add i64 %42, 1
  store i64 %43, ptr %41, align 8, !tbaa !168
  %44 = getelementptr inbounds nuw i8, ptr %0, i64 88
  %45 = load ptr, ptr %44, align 8, !tbaa !157
  %46 = tail call ptr @PyObject_Call(ptr noundef %45, ptr noundef %1, ptr noundef %2) #9
  %.not37 = icmp eq ptr %46, null
  br i1 %.not37, label %47, label %52

47:                                               ; preds = %40
  %48 = load i32, ptr %8, align 8, !tbaa !21
  %.not.i42 = icmp sgt i32 %48, -1
  br i1 %.not.i42, label %49, label %Py_DECREF.exit49

49:                                               ; preds = %47
  %50 = add nsw i32 %48, -1
  store i32 %50, ptr %8, align 8, !tbaa !21
  %51 = icmp eq i32 %50, 0
  br i1 %51, label %Py_DECREF.exit49.sink.split, label %Py_DECREF.exit49

52:                                               ; preds = %40
  %53 = load ptr, ptr %18, align 8, !tbaa !156
  %54 = tail call i32 @_PyDict_SetItem_KnownHash(ptr noundef %53, ptr noundef nonnull %8, ptr noundef nonnull %46, i64 noundef %10) #9
  %55 = icmp slt i32 %54, 0
  br i1 %55, label %56, label %66

56:                                               ; preds = %52
  %57 = load i32, ptr %46, align 8, !tbaa !21
  %.not.i40 = icmp sgt i32 %57, -1
  br i1 %.not.i40, label %58, label %Py_DECREF.exit41

58:                                               ; preds = %56
  %59 = add nsw i32 %57, -1
  store i32 %59, ptr %46, align 8, !tbaa !21
  %60 = icmp eq i32 %59, 0
  br i1 %60, label %61, label %Py_DECREF.exit41

61:                                               ; preds = %58
  tail call void @_Py_Dealloc(ptr noundef nonnull %46) #9
  br label %Py_DECREF.exit41

Py_DECREF.exit41:                                 ; preds = %56, %58, %61
  %62 = load i32, ptr %8, align 8, !tbaa !21
  %.not.i38 = icmp sgt i32 %62, -1
  br i1 %.not.i38, label %63, label %Py_DECREF.exit49

63:                                               ; preds = %Py_DECREF.exit41
  %64 = add nsw i32 %62, -1
  store i32 %64, ptr %8, align 8, !tbaa !21
  %65 = icmp eq i32 %64, 0
  br i1 %65, label %Py_DECREF.exit49.sink.split, label %Py_DECREF.exit49

66:                                               ; preds = %52
  %67 = load i32, ptr %8, align 8, !tbaa !21
  %.not.i = icmp sgt i32 %67, -1
  br i1 %.not.i, label %68, label %Py_DECREF.exit49

68:                                               ; preds = %66
  %69 = add nsw i32 %67, -1
  store i32 %69, ptr %8, align 8, !tbaa !21
  %70 = icmp eq i32 %69, 0
  br i1 %70, label %Py_DECREF.exit49.sink.split, label %Py_DECREF.exit49

Py_DECREF.exit49.sink.split:                      ; preds = %68, %63, %49, %37, %30, %14
  %.0.ph = phi ptr [ null, %14 ], [ %20, %30 ], [ null, %37 ], [ null, %49 ], [ null, %63 ], [ %46, %68 ]
  tail call void @_Py_Dealloc(ptr noundef nonnull %8) #9
  br label %Py_DECREF.exit49

Py_DECREF.exit49:                                 ; preds = %Py_DECREF.exit49.sink.split, %68, %66, %63, %Py_DECREF.exit41, %49, %47, %37, %35, %30, %Py_INCREF.exit, %14, %12, %3
  %.0 = phi ptr [ null, %3 ], [ null, %12 ], [ null, %14 ], [ %20, %Py_INCREF.exit ], [ %20, %30 ], [ null, %35 ], [ null, %37 ], [ null, %47 ], [ null, %49 ], [ null, %Py_DECREF.exit41 ], [ null, %63 ], [ %46, %66 ], [ %46, %68 ], [ %.0.ph, %Py_DECREF.exit49.sink.split ]
  ret ptr %.0
}